target datalayout = "e-m:e-p270:32:32-p271:32:32-p272:64:64-i64:64-i128:128-f80:128-n8:16:32:64-S128"
target triple = "x86_64-pc-linux-gnu"

%struct.wpacket_st = type { ptr, ptr, i64, i64, i64, ptr, i8 }
%struct.buf_mem_st = type { i64, ptr, i64, i64 }
%struct.wpacket_sub = type { ptr, i64, i64, i64, i32 }

@.str = private unnamed_addr constant [27 x i8] c"../openssl/crypto/packet.c\00", align 1

; Function Attrs: nounwind uwtable
define dso_local ptr @WPACKET_get_curr(ptr noundef %0) #0 {
  %2 = alloca ptr, align 8
  %3 = alloca ptr, align 8
  %4 = alloca ptr, align 8
  %5 = alloca i32, align 4
  store ptr %0, ptr %3, align 8, !tbaa !4
  call void @llvm.lifetime.start.p0(i64 8, ptr %4) #7
  %6 = load ptr, ptr %3, align 8, !tbaa !4
  %7 = getelementptr inbounds nuw %struct.wpacket_st, ptr %6, i32 0, i32 1
  %8 = load ptr, ptr %7, align 8, !tbaa !32
  %9 = icmp ne ptr %8, null
  br i1 %9, label %10, label %14

10:                                               ; preds = %1
  %11 = load ptr, ptr %3, align 8, !tbaa !4
  %12 = getelementptr inbounds nuw %struct.wpacket_st, ptr %11, i32 0, i32 1
  %13 = load ptr, ptr %12, align 8, !tbaa !32
  br label %28

14:                                               ; preds = %1
  %15 = load ptr, ptr %3, align 8, !tbaa !4
  %16 = getelementptr inbounds nuw %struct.wpacket_st, ptr %15, i32 0, i32 0
  %17 = load ptr, ptr %16, align 8, !tbaa !22
  %18 = icmp ne ptr %17, null
  br i1 %18, label %19, label %25

19:                                               ; preds = %14
  %20 = load ptr, ptr %3, align 8, !tbaa !4
  %21 = getelementptr inbounds nuw %struct.wpacket_st, ptr %20, i32 0, i32 0
  %22 = load ptr, ptr %21, align 8, !tbaa !22
  %23 = getelementptr inbounds nuw %struct.buf_mem_st, ptr %22, i32 0, i32 1
  %24 = load ptr, ptr %23, align 8, !tbaa !33
  br label %26

25:                                               ; preds = %14
  br label %26

26:                                               ; preds = %25, %19
  %27 = phi ptr [ %24, %19 ], [ null, %25 ]
  br label %28

28:                                               ; preds = %26, %10
  %29 = phi ptr [ %13, %10 ], [ %27, %26 ]
  store ptr %29, ptr %4, align 8, !tbaa !25
  %30 = load ptr, ptr %4, align 8, !tbaa !25
  %31 = icmp eq ptr %30, null
  br i1 %31, label %32, label %33

32:                                               ; preds = %28
  store ptr null, ptr %2, align 8
  store i32 1, ptr %5, align 4
  br label %57

33:                                               ; preds = %28
  %34 = load ptr, ptr %3, align 8, !tbaa !4
  %35 = getelementptr inbounds nuw %struct.wpacket_st, ptr %34, i32 0, i32 6
  %36 = load i8, ptr %35, align 8
  %37 = and i8 %36, 1
  %38 = zext i8 %37 to i32
  %39 = icmp ne i32 %38, 0
  br i1 %39, label %40, label %51

40:                                               ; preds = %33
  %41 = load ptr, ptr %4, align 8, !tbaa !25
  %42 = load ptr, ptr %3, align 8, !tbaa !4
  %43 = getelementptr inbounds nuw %struct.wpacket_st, ptr %42, i32 0, i32 4
  %44 = load i64, ptr %43, align 8, !tbaa !21
  %45 = getelementptr inbounds nuw i8, ptr %41, i64 %44
  %46 = load ptr, ptr %3, align 8, !tbaa !4
  %47 = getelementptr inbounds nuw %struct.wpacket_st, ptr %46, i32 0, i32 2
  %48 = load i64, ptr %47, align 8, !tbaa !19
  %49 = sub i64 0, %48
  %50 = getelementptr inbounds i8, ptr %45, i64 %49
  store ptr %50, ptr %2, align 8
  store i32 1, ptr %5, align 4
  br label %57

51:                                               ; preds = %33
  %52 = load ptr, ptr %4, align 8, !tbaa !25
  %53 = load ptr, ptr %3, align 8, !tbaa !4
  %54 = getelementptr inbounds nuw %struct.wpacket_st, ptr %53, i32 0, i32 2
  %55 = load i64, ptr %54, align 8, !tbaa !19
  %56 = getelementptr inbounds nuw i8, ptr %52, i64 %55
  store ptr %56, ptr %2, align 8
  store i32 1, ptr %5, align 4
  br label %57

57:                                               ; preds = %51, %40, %32
  call void @llvm.lifetime.end.p0(i64 8, ptr %4) #7
  %58 = load ptr, ptr %2, align 8
  ret ptr %58
}

; Function Attrs: nounwind uwtable
define dso_local i32 @WPACKET_reserve_bytes(ptr noundef %0, i64 noundef %1, ptr noundef %2) #0 {
  %4 = alloca i32, align 4
  %5 = alloca ptr, align 8
  %6 = alloca i64, align 8
  %7 = alloca ptr, align 8
  %8 = alloca i64, align 8
  %9 = alloca i64, align 8
  %10 = alloca i32, align 4
  store ptr %0, ptr %5, align 8, !tbaa !4
  store i64 %1, ptr %6, align 8, !tbaa !9
  store ptr %2, ptr %7, align 8, !tbaa !11
  %11 = load ptr, ptr %5, align 8, !tbaa !4
  %12 = getelementptr inbounds nuw %struct.wpacket_st, ptr %11, i32 0, i32 5
  %13 = load ptr, ptr %12, align 8, !tbaa !20
  %14 = icmp ne ptr %13, null
  br i1 %14, label %15, label %18

15:                                               ; preds = %3
  %16 = load i64, ptr %6, align 8, !tbaa !9
  %17 = icmp ne i64 %16, 0
  br label %18

18:                                               ; preds = %15, %3
  %19 = phi i1 [ false, %3 ], [ %17, %15 ]
  %20 = zext i1 %19 to i32
  %21 = icmp ne i32 %20, 0
  %22 = xor i1 %21, true
  %23 = xor i1 %22, true
  %24 = zext i1 %23 to i32
  %25 = sext i32 %24 to i64
  %26 = call i64 @llvm.expect.i64(i64 %25, i64 1)
  %27 = icmp ne i64 %26, 0
  br i1 %27, label %29, label %28

28:                                               ; preds = %18
  store i32 0, ptr %4, align 4
  br label %122

29:                                               ; preds = %18
  %30 = load ptr, ptr %5, align 8, !tbaa !4
  %31 = getelementptr inbounds nuw %struct.wpacket_st, ptr %30, i32 0, i32 4
  %32 = load i64, ptr %31, align 8, !tbaa !21
  %33 = load ptr, ptr %5, align 8, !tbaa !4
  %34 = getelementptr inbounds nuw %struct.wpacket_st, ptr %33, i32 0, i32 3
  %35 = load i64, ptr %34, align 8, !tbaa !13
  %36 = sub i64 %32, %35
  %37 = load i64, ptr %6, align 8, !tbaa !9
  %38 = icmp ult i64 %36, %37
  br i1 %38, label %39, label %40

39:                                               ; preds = %29
  store i32 0, ptr %4, align 4
  br label %122

40:                                               ; preds = %29
  %41 = load ptr, ptr %5, align 8, !tbaa !4
  %42 = getelementptr inbounds nuw %struct.wpacket_st, ptr %41, i32 0, i32 0
  %43 = load ptr, ptr %42, align 8, !tbaa !22
  %44 = icmp ne ptr %43, null
  br i1 %44, label %45, label %97

45:                                               ; preds = %40
  %46 = load ptr, ptr %5, align 8, !tbaa !4
  %47 = getelementptr inbounds nuw %struct.wpacket_st, ptr %46, i32 0, i32 0
  %48 = load ptr, ptr %47, align 8, !tbaa !22
  %49 = getelementptr inbounds nuw %struct.buf_mem_st, ptr %48, i32 0, i32 0
  %50 = load i64, ptr %49, align 8, !tbaa !23
  %51 = load ptr, ptr %5, align 8, !tbaa !4
  %52 = getelementptr inbounds nuw %struct.wpacket_st, ptr %51, i32 0, i32 3
  %53 = load i64, ptr %52, align 8, !tbaa !13
  %54 = sub i64 %50, %53
  %55 = load i64, ptr %6, align 8, !tbaa !9
  %56 = icmp ult i64 %54, %55
  br i1 %56, label %57, label %97

57:                                               ; preds = %45
  call void @llvm.lifetime.start.p0(i64 8, ptr %8) #7
  call void @llvm.lifetime.start.p0(i64 8, ptr %9) #7
  %58 = load i64, ptr %6, align 8, !tbaa !9
  %59 = load ptr, ptr %5, align 8, !tbaa !4
  %60 = getelementptr inbounds nuw %struct.wpacket_st, ptr %59, i32 0, i32 0
  %61 = load ptr, ptr %60, align 8, !tbaa !22
  %62 = getelementptr inbounds nuw %struct.buf_mem_st, ptr %61, i32 0, i32 0
  %63 = load i64, ptr %62, align 8, !tbaa !23
  %64 = icmp ugt i64 %58, %63
  br i1 %64, label %65, label %67

65:                                               ; preds = %57
  %66 = load i64, ptr %6, align 8, !tbaa !9
  br label %73

67:                                               ; preds = %57
  %68 = load ptr, ptr %5, align 8, !tbaa !4
  %69 = getelementptr inbounds nuw %struct.wpacket_st, ptr %68, i32 0, i32 0
  %70 = load ptr, ptr %69, align 8, !tbaa !22
  %71 = getelementptr inbounds nuw %struct.buf_mem_st, ptr %70, i32 0, i32 0
  %72 = load i64, ptr %71, align 8, !tbaa !23
  br label %73

73:                                               ; preds = %67, %65
  %74 = phi i64 [ %66, %65 ], [ %72, %67 ]
  store i64 %74, ptr %9, align 8, !tbaa !9
  %75 = load i64, ptr %9, align 8, !tbaa !9
  %76 = icmp ugt i64 %75, 9223372036854775807
  br i1 %76, label %77, label %78

77:                                               ; preds = %73
  store i64 -1, ptr %8, align 8, !tbaa !9
  br label %85

78:                                               ; preds = %73
  %79 = load i64, ptr %9, align 8, !tbaa !9
  %80 = mul i64 %79, 2
  store i64 %80, ptr %8, align 8, !tbaa !9
  %81 = load i64, ptr %8, align 8, !tbaa !9
  %82 = icmp ult i64 %81, 256
  br i1 %82, label %83, label %84

83:                                               ; preds = %78
  store i64 256, ptr %8, align 8, !tbaa !9
  br label %84

84:                                               ; preds = %83, %78
  br label %85

85:                                               ; preds = %84, %77
  %86 = load ptr, ptr %5, align 8, !tbaa !4
  %87 = getelementptr inbounds nuw %struct.wpacket_st, ptr %86, i32 0, i32 0
  %88 = load ptr, ptr %87, align 8, !tbaa !22
  %89 = load i64, ptr %8, align 8, !tbaa !9
  %90 = call i64 @BUF_MEM_grow(ptr noundef %88, i64 noundef %89)
  %91 = icmp eq i64 %90, 0
  br i1 %91, label %92, label %93

92:                                               ; preds = %85
  store i32 0, ptr %4, align 4
  store i32 1, ptr %10, align 4
  br label %94

93:                                               ; preds = %85
  store i32 0, ptr %10, align 4
  br label %94

94:                                               ; preds = %93, %92
  call void @llvm.lifetime.end.p0(i64 8, ptr %9) #7
  call void @llvm.lifetime.end.p0(i64 8, ptr %8) #7
  %95 = load i32, ptr %10, align 4
  switch i32 %95, label %124 [
    i32 0, label %96
    i32 1, label %122
  ]

96:                                               ; preds = %94
  br label %97

97:                                               ; preds = %96, %45, %40
  %98 = load ptr, ptr %7, align 8, !tbaa !11
  %99 = icmp ne ptr %98, null
  br i1 %99, label %100, label %121

100:                                              ; preds = %97
  %101 = load ptr, ptr %5, align 8, !tbaa !4
  %102 = call ptr @WPACKET_get_curr(ptr noundef %101)
  %103 = load ptr, ptr %7, align 8, !tbaa !11
  store ptr %102, ptr %103, align 8, !tbaa !25
  %104 = load ptr, ptr %5, align 8, !tbaa !4
  %105 = getelementptr inbounds nuw %struct.wpacket_st, ptr %104, i32 0, i32 6
  %106 = load i8, ptr %105, align 8
  %107 = and i8 %106, 1
  %108 = zext i8 %107 to i32
  %109 = icmp ne i32 %108, 0
  br i1 %109, label %110, label %120

110:                                              ; preds = %100
  %111 = load ptr, ptr %7, align 8, !tbaa !11
  %112 = load ptr, ptr %111, align 8, !tbaa !25
  %113 = icmp ne ptr %112, null
  br i1 %113, label %114, label %120

114:                                              ; preds = %110
  %115 = load i64, ptr %6, align 8, !tbaa !9
  %116 = load ptr, ptr %7, align 8, !tbaa !11
  %117 = load ptr, ptr %116, align 8, !tbaa !25
  %118 = sub i64 0, %115
  %119 = getelementptr inbounds i8, ptr %117, i64 %118
  store ptr %119, ptr %116, align 8, !tbaa !25
  br label %120

120:                                              ; preds = %114, %110, %100
  br label %121

121:                                              ; preds = %120, %97
  store i32 1, ptr %4, align 4
  br label %122

122:                                              ; preds = %121, %94, %39, %28
  %123 = load i32, ptr %4, align 4
  ret i32 %123

124:                                              ; preds = %94
  unreachable
}

; Function Attrs: nounwind uwtable
define dso_local i32 @WPACKET_allocate_bytes(ptr noundef %0, i64 noundef %1, ptr noundef %2) #0 {
  %4 = alloca i32, align 4
  %5 = alloca ptr, align 8
  %6 = alloca i64, align 8
  %7 = alloca ptr, align 8
  store ptr %0, ptr %5, align 8, !tbaa !4
  store i64 %1, ptr %6, align 8, !tbaa !9
  store ptr %2, ptr %7, align 8, !tbaa !11
  %8 = load ptr, ptr %5, align 8, !tbaa !4
  %9 = load i64, ptr %6, align 8, !tbaa !9
  %10 = load ptr, ptr %7, align 8, !tbaa !11
  %11 = call i32 @WPACKET_reserve_bytes(ptr noundef %8, i64 noundef %9, ptr noundef %10)
  %12 = icmp ne i32 %11, 0
  br i1 %12, label %14, label %13

13:                                               ; preds = %3
  store i32 0, ptr %4, align 4
  br label %25

14:                                               ; preds = %3
  %15 = load i64, ptr %6, align 8, !tbaa !9
  %16 = load ptr, ptr %5, align 8, !tbaa !4
  %17 = getelementptr inbounds nuw %struct.wpacket_st, ptr %16, i32 0, i32 3
  %18 = load i64, ptr %17, align 8, !tbaa !13
  %19 = add i64 %18, %15
  store i64 %19, ptr %17, align 8, !tbaa !13
  %20 = load i64, ptr %6, align 8, !tbaa !9
  %21 = load ptr, ptr %5, align 8, !tbaa !4
  %22 = getelementptr inbounds nuw %struct.wpacket_st, ptr %21, i32 0, i32 2
  %23 = load i64, ptr %22, align 8, !tbaa !19
  %24 = add i64 %23, %20
  store i64 %24, ptr %22, align 8, !tbaa !19
  store i32 1, ptr %4, align 4
  br label %25

25:                                               ; preds = %14, %13
  %26 = load i32, ptr %4, align 4
  ret i32 %26
}

; Function Attrs: nounwind uwtable
define internal i32 @wpacket_intern_init_len(ptr noundef %0, i64 noundef %1) #0 {
  %3 = alloca i32, align 4
  %4 = alloca ptr, align 8
  %5 = alloca i64, align 8
  %6 = alloca ptr, align 8
  %7 = alloca i32, align 4
  store ptr %0, ptr %4, align 8, !tbaa !4
  store i64 %1, ptr %5, align 8, !tbaa !9
  call void @llvm.lifetime.start.p0(i64 8, ptr %6) #7
  %8 = load ptr, ptr %4, align 8, !tbaa !4
  %9 = getelementptr inbounds nuw %struct.wpacket_st, ptr %8, i32 0, i32 2
  store i64 0, ptr %9, align 8, !tbaa !19
  %10 = load ptr, ptr %4, align 8, !tbaa !4
  %11 = getelementptr inbounds nuw %struct.wpacket_st, ptr %10, i32 0, i32 3
  store i64 0, ptr %11, align 8, !tbaa !13
  %12 = call noalias ptr @CRYPTO_zalloc(i64 noundef 40, ptr noundef @.str, i32 noundef 110)
  %13 = load ptr, ptr %4, align 8, !tbaa !4
  %14 = getelementptr inbounds nuw %struct.wpacket_st, ptr %13, i32 0, i32 5
  store ptr %12, ptr %14, align 8, !tbaa !20
  %15 = icmp eq ptr %12, null
  br i1 %15, label %16, label %17

16:                                               ; preds = %2
  store i32 0, ptr %3, align 4
  store i32 1, ptr %7, align 4
  br label %47

17:                                               ; preds = %2
  %18 = load i64, ptr %5, align 8, !tbaa !9
  %19 = icmp eq i64 %18, 0
  br i1 %19, label %20, label %21

20:                                               ; preds = %17
  store i32 1, ptr %3, align 4
  store i32 1, ptr %7, align 4
  br label %47

21:                                               ; preds = %17
  %22 = load i64, ptr %5, align 8, !tbaa !9
  %23 = load ptr, ptr %4, align 8, !tbaa !4
  %24 = getelementptr inbounds nuw %struct.wpacket_st, ptr %23, i32 0, i32 5
  %25 = load ptr, ptr %24, align 8, !tbaa !20
  %26 = getelementptr inbounds nuw %struct.wpacket_sub, ptr %25, i32 0, i32 3
  store i64 %22, ptr %26, align 8, !tbaa !29
  %27 = load i64, ptr %5, align 8, !tbaa !9
  %28 = load ptr, ptr %4, align 8, !tbaa !4
  %29 = getelementptr inbounds nuw %struct.wpacket_st, ptr %28, i32 0, i32 5
  %30 = load ptr, ptr %29, align 8, !tbaa !20
  %31 = getelementptr inbounds nuw %struct.wpacket_sub, ptr %30, i32 0, i32 2
  store i64 %27, ptr %31, align 8, !tbaa !30
  %32 = load ptr, ptr %4, align 8, !tbaa !4
  %33 = load i64, ptr %5, align 8, !tbaa !9
  %34 = call i32 @WPACKET_allocate_bytes(ptr noundef %32, i64 noundef %33, ptr noundef %6)
  %35 = icmp ne i32 %34, 0
  br i1 %35, label %42, label %36

36:                                               ; preds = %21
  %37 = load ptr, ptr %4, align 8, !tbaa !4
  %38 = getelementptr inbounds nuw %struct.wpacket_st, ptr %37, i32 0, i32 5
  %39 = load ptr, ptr %38, align 8, !tbaa !20
  call void @CRYPTO_free(ptr noundef %39, ptr noundef @.str, i32 noundef 120)
  %40 = load ptr, ptr %4, align 8, !tbaa !4
  %41 = getelementptr inbounds nuw %struct.wpacket_st, ptr %40, i32 0, i32 5
  store ptr null, ptr %41, align 8, !tbaa !20
  store i32 0, ptr %3, align 4
  store i32 1, ptr %7, align 4
  br label %47

42:                                               ; preds = %21
  %43 = load ptr, ptr %4, align 8, !tbaa !4
  %44 = getelementptr inbounds nuw %struct.wpacket_st, ptr %43, i32 0, i32 5
  %45 = load ptr, ptr %44, align 8, !tbaa !20
  %46 = getelementptr inbounds nuw %struct.wpacket_sub, ptr %45, i32 0, i32 1
  store i64 0, ptr %46, align 8, !tbaa !31
  store i32 1, ptr %3, align 4
  store i32 1, ptr %7, align 4
  br label %47

47:                                               ; preds = %42, %36, %20, %16
  call void @llvm.lifetime.end.p0(i64 8, ptr %6) #7
  %48 = load i32, ptr %3, align 4
  ret i32 %48
}

; Function Attrs: nounwind uwtable
define dso_local i32 @WPACKET_init_null_der(ptr noundef %0) #0 {
  %2 = alloca ptr, align 8
  store ptr %0, ptr %2, align 8, !tbaa !4
  %3 = load ptr, ptr %2, align 8, !tbaa !4
  %4 = getelementptr inbounds nuw %struct.wpacket_st, ptr %3, i32 0, i32 1
  store ptr null, ptr %4, align 8, !tbaa !32
  %5 = load ptr, ptr %2, align 8, !tbaa !4
  %6 = getelementptr inbounds nuw %struct.wpacket_st, ptr %5, i32 0, i32 0
  store ptr null, ptr %6, align 8, !tbaa !22
  %7 = load ptr, ptr %2, align 8, !tbaa !4
  %8 = getelementptr inbounds nuw %struct.wpacket_st, ptr %7, i32 0, i32 4
  store i64 -1, ptr %8, align 8, !tbaa !21
  %9 = load ptr, ptr %2, align 8, !tbaa !4
  %10 = getelementptr inbounds nuw %struct.wpacket_st, ptr %9, i32 0, i32 6
  %11 = load i8, ptr %10, align 8
  %12 = and i8 %11, -2
  %13 = or i8 %12, 1
  store i8 %13, ptr %10, align 8
  %14 = load ptr, ptr %2, align 8, !tbaa !4
  %15 = call i32 @wpacket_intern_init_len(ptr noundef %14, i64 noundef 0)
  ret i32 %15
}