; Function Attrs: nounwind uwtable
define dso_local range(i32 0, 2) i32 @WPACKET_init_null_der(ptr noundef captures(none) initializes((0, 48)) %0) local_unnamed_addr #0 {
wpacket_intern_init_len.exit:
  %1 = getelementptr inbounds nuw i8, ptr %0, i64 32
  tail call void @llvm.memset.p0.i64(ptr noundef nonnull align 8 dereferenceable(16) %0, i8 0, i64 16, i1 false)
  store i64 -1, ptr %1, align 8, !tbaa !15
  %2 = getelementptr inbounds nuw i8, ptr %0, i64 48
  %3 = load i8, ptr %2, align 8
  %4 = or i8 %3, 1
  store i8 %4, ptr %2, align 8
  %5 = getelementptr inbounds nuw i8, ptr %0, i64 16
  tail call void @llvm.memset.p0.i64(ptr noundef nonnull align 8 dereferenceable(16) %5, i8 0, i64 16, i1 false)
  %6 = tail call noalias ptr @CRYPTO_zalloc(i64 noundef 40, ptr noundef nonnull @.str, i32 noundef 110) #12
  %7 = getelementptr inbounds nuw i8, ptr %0, i64 40
  store ptr %6, ptr %7, align 8, !tbaa !4
  %8 = icmp ne ptr %6, null
  %spec.select = zext i1 %8 to i32
  ret i32 %spec.select
}